; Function Attrs: mustprogress nofree norecurse nosync nounwind willreturn memory(read, inaccessiblemem: none) uwtable
define noundef ptr @_ZN12MeshDocument9getRasterEj(ptr noundef nonnull readonly align 8 dereferenceable(192) %0, i32 noundef %1) local_unnamed_addr #13 align 2 {
  %3 = getelementptr inbounds i8, ptr %0, i64 104
  br label %4

4:                                                ; preds = %5, %2
  %.sroa.06.0.in = phi ptr [ %3, %2 ], [ %.sroa.06.0, %5 ]
  %.sroa.06.0 = load ptr, ptr %.sroa.06.0.in, align 8
  %.not = icmp eq ptr %.sroa.06.0, %3
  br i1 %.not, label %.split.loop.exit, label %5

5:                                                ; preds = %4
  %6 = getelementptr inbounds i8, ptr %.sroa.06.0, i64 172
  %7 = load i32, ptr %6, align 4
  %8 = icmp eq i32 %7, %1
  br i1 %8, label %.split.loop.exit9, label %4

.split.loop.exit9:                                ; preds = %5
  %9 = getelementptr inbounds i8, ptr %.sroa.06.0, i64 16
  br label %.split.loop.exit

.split.loop.exit:                                 ; preds = %4, %.split.loop.exit9
  %.0 = phi ptr [ %9, %.split.loop.exit9 ], [ null, %4 ]
  ret ptr %.0
}